; ModuleID = '24/2259.c'
source_filename = "24/2259.c"
target datalayout = "e-m:e-p270:32:32-p271:32:32-p272:64:64-i64:64-f80:128-n8:16:32:64-S128"
target triple = "x86_64-pc-linux-gnu"

; Function Attrs: noinline nounwind uwtable
define dso_local void @main() #0 {
  %1 = alloca [1000 x i8], align 16
  %2 = alloca [200 x [20 x i8]], align 16
  %3 = alloca i32, align 4
  %4 = alloca i32, align 4
  %5 = alloca i32, align 4
  %6 = alloca i32, align 4
  %7 = alloca i32, align 4
  %8 = alloca i32, align 4
  %9 = alloca i32, align 4
  %10 = alloca i32, align 4
  %11 = alloca i32, align 4
  %12 = alloca i32, align 4
  %13 = alloca i32, align 4
  %14 = alloca i32, align 4
  %15 = alloca i32, align 4
  %16 = alloca i32, align 4
  %17 = alloca i32, align 4
  %18 = alloca i32, align 4
  %19 = alloca i32, align 4
  store i32 0, i32* %12, align 4
  store i32 0, i32* %16, align 4
  store i32 50, i32* %17, align 4
  %20 = getelementptr inbounds [1000 x i8], [1000 x i8]* %1, i64 0, i64 0
  %21 = call i32 (i8*, ...) bitcast (i32 (...)* @gets to i32 (i8*, ...)*)(i8* %20)
  %22 = getelementptr inbounds [1000 x i8], [1000 x i8]* %1, i64 0, i64 0
  %23 = call i64 @strlen(i8* %22) #3
  %24 = trunc i64 %23 to i32
  store i32 %24, i32* %13, align 4
  store i32 0, i32* %10, align 4
  br label %25

25:                                               ; preds = %48, %0
  %26 = load i32, i32* %10, align 4
  %27 = load i32, i32* %13, align 4
  %28 = icmp slt i32 %26, %27
  br i1 %28, label %29, label %51

29:                                               ; preds = %25
  %30 = load i32, i32* %10, align 4
  %31 = sext i32 %30 to i64
  %32 = getelementptr inbounds [1000 x i8], [1000 x i8]* %1, i64 0, i64 %31
  %33 = load i8, i8* %32, align 1
  %34 = sext i8 %33 to i32
  %35 = icmp eq i32 %34, 44
  br i1 %35, label %43, label %36

36:                                               ; preds = %29
  %37 = load i32, i32* %10, align 4
  %38 = sext i32 %37 to i64
  %39 = getelementptr inbounds [1000 x i8], [1000 x i8]* %1, i64 0, i64 %38
  %40 = load i8, i8* %39, align 1
  %41 = sext i8 %40 to i32
  %42 = icmp eq i32 %41, 32
  br i1 %42, label %43, label %47

43:                                               ; preds = %36, %29
  %44 = load i32, i32* %10, align 4
  %45 = sext i32 %44 to i64
  %46 = getelementptr inbounds [1000 x i8], [1000 x i8]* %1, i64 0, i64 %45
  store i8 0, i8* %46, align 1
  br label %47

47:                                               ; preds = %43, %36
  br label %48

48:                                               ; preds = %47
  %49 = load i32, i32* %10, align 4
  %50 = add nsw i32 %49, 1
  store i32 %50, i32* %10, align 4
  br label %25

51:                                               ; preds = %25
  store i32 0, i32* %10, align 4
  br label %52

52:                                               ; preds = %96, %51
  %53 = load i32, i32* %10, align 4
  %54 = load i32, i32* %13, align 4
  %55 = icmp sle i32 %53, %54
  br i1 %55, label %56, label %99

56:                                               ; preds = %52
  %57 = load i32, i32* %10, align 4
  %58 = sext i32 %57 to i64
  %59 = getelementptr inbounds [1000 x i8], [1000 x i8]* %1, i64 0, i64 %58
  %60 = load i8, i8* %59, align 1
  %61 = sext i8 %60 to i32
  %62 = icmp eq i32 %61, 0
  br i1 %62, label %63, label %66

63:                                               ; preds = %56
  %64 = load i32, i32* %10, align 4
  %65 = add nsw i32 %64, 1
  store i32 %65, i32* %10, align 4
  br label %66

66:                                               ; preds = %63, %56
  %67 = load i32, i32* %10, align 4
  store i32 %67, i32* %11, align 4
  br label %68

68:                                               ; preds = %89, %66
  %69 = load i32, i32* %11, align 4
  %70 = sext i32 %69 to i64
  %71 = getelementptr inbounds [1000 x i8], [1000 x i8]* %1, i64 0, i64 %70
  %72 = load i8, i8* %71, align 1
  %73 = load i32, i32* %12, align 4
  %74 = sext i32 %73 to i64
  %75 = getelementptr inbounds [200 x [20 x i8]], [200 x [20 x i8]]* %2, i64 0, i64 %74
  %76 = load i32, i32* %11, align 4
  %77 = load i32, i32* %10, align 4
  %78 = sub nsw i32 %76, %77
  %79 = sext i32 %78 to i64
  %80 = getelementptr inbounds [20 x i8], [20 x i8]* %75, i64 0, i64 %79
  store i8 %72, i8* %80, align 1
  %81 = load i32, i32* %11, align 4
  %82 = sext i32 %81 to i64
  %83 = getelementptr inbounds [1000 x i8], [1000 x i8]* %1, i64 0, i64 %82
  %84 = load i8, i8* %83, align 1
  %85 = sext i8 %84 to i32
  %86 = icmp eq i32 %85, 0
  br i1 %86, label %87, label %88

87:                                               ; preds = %68
  br label %92

88:                                               ; preds = %68
  br label %89

89:                                               ; preds = %88
  %90 = load i32, i32* %11, align 4
  %91 = add nsw i32 %90, 1
  store i32 %91, i32* %11, align 4
  br label %68

92:                                               ; preds = %87
  %93 = load i32, i32* %12, align 4
  %94 = add nsw i32 %93, 1
  store i32 %94, i32* %12, align 4
  %95 = load i32, i32* %11, align 4
  store i32 %95, i32* %10, align 4
  br label %96

96:                                               ; preds = %92
  %97 = load i32, i32* %10, align 4
  %98 = add nsw i32 %97, 1
  store i32 %98, i32* %10, align 4
  br label %52

99:                                               ; preds = %52
  store i32 0, i32* %10, align 4
  br label %100

100:                                              ; preds = %139, %99
  %101 = load i32, i32* %10, align 4
  %102 = load i32, i32* %12, align 4
  %103 = icmp slt i32 %101, %102
  br i1 %103, label %104, label %142

104:                                              ; preds = %100
  %105 = load i32, i32* %10, align 4
  %106 = sext i32 %105 to i64
  %107 = getelementptr inbounds [200 x [20 x i8]], [200 x [20 x i8]]* %2, i64 0, i64 %106
  %108 = getelementptr inbounds [20 x i8], [20 x i8]* %107, i64 0, i64 0
  %109 = call i64 @strlen(i8* %108) #3
  %110 = load i32, i32* %16, align 4
  %111 = sext i32 %110 to i64
  %112 = icmp ugt i64 %109, %111
  br i1 %112, label %113, label %121

113:                                              ; preds = %104
  %114 = load i32, i32* %10, align 4
  store i32 %114, i32* %18, align 4
  %115 = load i32, i32* %10, align 4
  %116 = sext i32 %115 to i64
  %117 = getelementptr inbounds [200 x [20 x i8]], [200 x [20 x i8]]* %2, i64 0, i64 %116
  %118 = getelementptr inbounds [20 x i8], [20 x i8]* %117, i64 0, i64 0
  %119 = call i64 @strlen(i8* %118) #3
  %120 = trunc i64 %119 to i32
  store i32 %120, i32* %16, align 4
  br label %121

121:                                              ; preds = %113, %104
  %122 = load i32, i32* %10, align 4
  %123 = sext i32 %122 to i64
  %124 = getelementptr inbounds [200 x [20 x i8]], [200 x [20 x i8]]* %2, i64 0, i64 %123
  %125 = getelementptr inbounds [20 x i8], [20 x i8]* %124, i64 0, i64 0
  %126 = call i64 @strlen(i8* %125) #3
  %127 = load i32, i32* %17, align 4
  %128 = sext i32 %127 to i64
  %129 = icmp ult i64 %126, %128
  br i1 %129, label %130, label %138

130:                                              ; preds = %121
  %131 = load i32, i32* %10, align 4
  store i32 %131, i32* %19, align 4
  %132 = load i32, i32* %10, align 4
  %133 = sext i32 %132 to i64
  %134 = getelementptr inbounds [200 x [20 x i8]], [200 x [20 x i8]]* %2, i64 0, i64 %133
  %135 = getelementptr inbounds [20 x i8], [20 x i8]* %134, i64 0, i64 0
  %136 = call i64 @strlen(i8* %135) #3
  %137 = trunc i64 %136 to i32
  store i32 %137, i32* %17, align 4
  br label %138

138:                                              ; preds = %130, %121
  br label %139

139:                                              ; preds = %138
  %140 = load i32, i32* %10, align 4
  %141 = add nsw i32 %140, 1
  store i32 %141, i32* %10, align 4
  br label %100

142:                                              ; preds = %100
  %143 = load i32, i32* %18, align 4
  %144 = sext i32 %143 to i64
  %145 = getelementptr inbounds [200 x [20 x i8]], [200 x [20 x i8]]* %2, i64 0, i64 %144
  %146 = getelementptr inbounds [20 x i8], [20 x i8]* %145, i64 0, i64 0
  %147 = call i32 @puts(i8* %146)
  %148 = load i32, i32* %19, align 4
  %149 = sext i32 %148 to i64
  %150 = getelementptr inbounds [200 x [20 x i8]], [200 x [20 x i8]]* %2, i64 0, i64 %149
  %151 = getelementptr inbounds [20 x i8], [20 x i8]* %150, i64 0, i64 0
  %152 = call i32 @puts(i8* %151)
  ret void
}

declare dso_local i32 @gets(...) #1

; Function Attrs: nounwind readonly
declare dso_local i64 @strlen(i8*) #2

declare dso_local i32 @puts(i8*) #1


!llvm.module.flags = !{!0}
!llvm.ident = !{!1}

!0 = !{i32 1, !"wchar_size", i32 4}
!1 = !{!"clang version 10.0.0-4ubuntu1 "}
